(dp0
S'osx'
p1
S'Os-x'
p2
sS'cocktop'
p3
S'Cocktop'
p4
sS'borderlands'
p5
S'Borderlands'
p6
sS'seagate'
p7
S'Seagate'
p8
sS'dahon'
p9
S'Dahon'
p10
sS'steve'
p11
S'Steve jobs'
p12
sS'theaters'
p13
S'Home theater'
p14
sS'mp5'
p15
S'Mp5'
p16
sS'classic'
p17
S'Classic'
p18
sS'mirage'
p19
S'Mirage'
p20
sS'mansion'
p21
S"Luigi's mansion dark moon"
p22
sS'woody'
p23
S'Woody'
p24
sS'vaporeto'
p25
S'Vaporeto'
p26
sS'transflash'
p27
S'Transflash'
p28
sS'backlight'
p29
S'Backlight'
p30
sS'knect'
p31
S'Kinect'
p32
sS'coolpix'
p33
S'Nikon coolpix'
p34
sS'aud'
p35
S'Audi'
p36
sS'crakle'
p37
S'Crakle'
p38
sS'lz20'
p39
S'Lumix lz20'
p40
sS'w600i'
p41
S'W600i'
p42
sS'lalique'
p43
S'Lalique'
p44
sS'aromatics'
p45
S'Aromatics'
p46
sS'infinit'
p47
S'Infinit'
p48
sS'n8000'
p49
S'Samsung gt-n8000'
p50
sS'h-buster'
p51
S'H-buster'
p52
sS'lizz'
p53
S'Lizz'
p54
sS'smile'
p55
S'Smile schutter'
p56
sS'garmim'
p57
S'Garmim'
p58
sS'xti'
p59
S'Canon xti'
p60
sS'mpg'
p61
S'Mpg'
p62
sS'tourmaline'
p63
S'Tourmaline ion'
p64
sS'smartphone'
p65
S'Smartphone'
p66
sS'ps2'
p67
S'Playstation 2'
p68
sS'quadri-band'
p69
S'Quadri-band'
p70
sS'nikkor'
p71
S'Nikkor'
p72
sS's4000'
p73
S'Fujifilm finepix s4000'
p74
sS'macmini'
p75
S'Apple mac mini'
p76
sS'dell'
p77
S'Dell'
p78
sS'imessage'
p79
S'Imessage'
p80
sS'givenchy'
p81
S'Givenchy'
p82
sS'lm8600'
p83
S'Lm8600'
p84
sS'bucape'
p85
S'Buscap\xc3\xa9'
p86
sS'minisd'
p87
S'Minisd'
p88
sS'anynet'
p89
S'Anynet'
p90
sS'candide'
p91
S'Candide'
p92
sS'psvita'
p93
S'Playstation vita'
p94
sS'n85'
p95
S'N85'
p96
sS'faet'
p97
S'Faet'
p98
sS'bulletstorm'
p99
S'Bulletstorm'
p100
sS'mercurial'
p101
S'Mercurial'
p102
sS'borderless'
p103
S'Live borderless'
p104
sS'ultrabook'
p105
S'Ultrabook'
p106
sS'dexpc'
p107
S'Dexpc'
p108
sS'picasa'
p109
S'Picasa'
p110
sS'joyride'
p111
S'Jetpack joyride'
p112
sS'kouros'
p113
S'Kouros'
p114
sS'ek-gc100'
p115
S'Ek-gc100'
p116
sS'subway'
p117
S'Subway surfers'
p118
sS'rokr'
p119
S'Motorola rokr'
p120
sS'crnet'
p121
S'Crnet shop'
p122
sS'renner'
p123
S'Renner'
p124
sS'jostick'
p125
S'Joystick'
p126
sS'carls'
p127
S'Carls zeiss'
p128
sS'pictbridge'
p129
S'Pictbridge'
p130
sS'gc'
p131
S'Gc'
p132
sS'kratos'
p133
S'Kratos'
p134
sS'revlon'
p135
S'Revlon'
p136
sS'sensation'
p137
S'Htc sensation'
p138
sS'sx50hs'
p139
S'Sx50hs'
p140
sS'freemont'
p141
S'Freemont'
p142
sS'core2duo'
p143
S'Core2duo'
p144
sS'sack\xc2\xb4s'
p145
S'Sack\xc2\xb4s'
p146
sS'aplle'
p147
S'Apple'
p148
sS'air'
p149
S'Air'
p150
sS'zq'
p151
S'Xperia zq'
p152
sS'razer'
p153
S'Razer'
p154
sS't2i'
p155
S'T2i'
p156
sS'g27'
p157
S'Logitech g27'
p158
sS'phablet'
p159
S'Phablet'
p160
sS'compaq'
p161
S'Compaq'
p162
sS'barbie'
p163
S'Barbie'
p164
sS'gsmarena'
p165
S'Gsmarena'
p166
sS'caf\xc3\xa9-caf\xc3\xa9'
p167
S'Caf\xc3\xa9-caf\xc3\xa9'
p168
sS'liberty'
p169
S'Liberty city'
p170
sS'huawei'
p171
S'Huawei'
p172
sS'jedi'
p173
S'Jedi'
p174
sS'le7500'
p175
S'Lg le7500'
p176
sS'xvid'
p177
S'Xvid'
p178
sS'corby'
p179
S'Corby'
p180
sS'intelbr\xc3\xa1s'
p181
S'Intelbr\xc3\xa1s'
p182
sS'p720h'
p183
S'P720h'
p184
sS's10'
p185
S'S10'
p186
sS'hero'
p187
S'Guitar hero'
p188
sS'temple'
p189
S'Temple run'
p190
sS'envy'
p191
S'Envy'
p192
sS'w220'
p193
S'W220'
p194
sS'q11'
p195
S'Motorola q11'
p196
sS'motonav'
p197
S'Motonav'
p198
sS'exynos'
p199
S'Exynos'
p200
sS'ubuntu'
p201
S'Ubuntu'
p202
sS'wair'
p203
S'Wair wash'
p204
sS'motorolla'
p205
S'Motorola'
p206
sS'mex'
p207
S'Mex v30'
p208
sS'olimpus'
p209
S'Olimpus'
p210
sS'cybershot'
p211
S'Cybershot'
p212
sS'play3'
p213
S'Playstation 3'
p214
sS'rockbox'
p215
S'Rockbox'
p216
sS'capcom'
p217
S'Capcom'
p218
sS'exccel'
p219
S'Microsoft excel'
p220
sS'quadcore'
p221
S'Quadcore'
p222
sS'guerlain'
p223
S'Guerlain'
p224
sS'gigaset'
p225
S'Gigaset'
p226
sS'itunes'
p227
S'Itunes'
p228
sS'symbiam'
p229
S'Symbiam'
p230
sS'uncharted'
p231
S'Uncharted'
p232
sS'froyo'
p233
S'Android froyo'
p234
sS'popcorn'
p235
S'Popcorn'
p236
sS'e63'
p237
S'E63'
p238
sS'minecraft'
p239
S'Minecraft'
p240
sS'ubisoft'
p241
S'Ubisoft'
p242
sS'karcher'
p243
S'Karcher'
p244
sS'benq'
p245
S'Benq'
p246
sS'yamada'
p247
S'Rapid fire yamada'
p248
sS'firefox'
p249
S'Firefox'
p250
sS'blizzard'
p251
S'Blizzard'
p252
sS'smat'
p253
S'Smart tv'
p254
sS'clancys'
p255
S'Tom clancys'
p256
sS'vii'
p257
S'Aegis vii'
p258
sS'jailbreak'
p259
S'Jailbreak'
p260
sS'elgin'
p261
S'Elgin'
p262
sS'wii'
p263
S'Nintendo wii'
p264
sS'komeco'
p265
S'Komeco'
p266
sS'delongui'
p267
S'Delonghi'
p268
sS'atrix'
p269
S'Atrix'
p270
sS'usg'
p271
S'Usg ishimura'
p272
sS'spen'
p273
S'Caneta s pen'
p274
sS'evernote'
p275
S'Evernote'
p276
sS'lenox'
p277
S'Lenoxx sound'
p278
sS'angry'
p279
S'Angry birds'
p280
sS'gloss'
p281
S'Taiff gloss'
p282
sS'brize'
p283
S'Brize'
p284
sS'resident'
p285
S'Resident evil'
p286
sS'xbox360'
p287
S'Xbox360'
p288
sS'foursquare'
p289
S'Foursquare'
p290
sS'colormaq'
p291
S'Colormaq'
p292
sS'iphone'
p293
S'Iphone'
p294
sS'minolta'
p295
S'Minolta'
p296
sS'gabbana'
p297
S'Dolce & gabbana'
p298
sS'fros'
p299
S'Frost free'
p300
sS'yardley'
p301
S'Yardley'
p302
sS'pixar'
p303
S'Pixar'
p304
sS'c333'
p305
S'Lg c333'
p306
sS'konami'
p307
S'Konami'
p308
sS'mitsuca'
p309
S'Mitsuca'
p310
sS'blackberrys'
p311
S'Blackberries'
p312
sS'le5500'
p313
S'Le5500'
p314
sS'wi-'
p315
S'Wi-fi'
p316
sS'philipis'
p317
S'Philipis'
p318
sS'yahoo'
p319
S'Yahoo'
p320
sS'sx30is'
p321
S'Sx30is'
p322
sS'glass'
p323
S'Gorilla glass'
p324
sS'nks'
p325
S'Nks'
p326
sS'itau'
p327
S'Itau'
p328
sS'dior'
p329
S'Dior'
p330
sS'oster'
p331
S'Oster'
p332
sS'iv'
p333
S'Gta iv'
p334
sS'springer'
p335
S'Springer'
p336
sS'lavete'
p337
S'Arno lavete'
p338
sS'mz616'
p339
S'Motorola xoom 2 mz616'
p340
sS'britney'
p341
S'Britney'
p342
sS'mugler'
p343
S'Thierry mugler'
p344
sS't6600'
p345
S'T6600'
p346
sS'netflix'
p347
S'Netflix'
p348
sS'animale'
p349
S'Animale'
p350
sS'truemotion'
p351
S'Truemotion'
p352
sS'smarttv'
p353
S'Smart tv'
p354
sS'midea'
p355
S'Midea'
p356
sS'a5x'
p357
S'Apple a5x'
p358
sS'mondial'
p359
S'Mondial'
p360
sS'control'
p361
S'Magic control'
p362
sS'samsung'
p363
S'Samsung'
p364
sS'cuisinart'
p365
S'Cuisinart'
p366
sS'bonder'
p367
S'Super bonder'
p368
sS'trackid'
p369
S'Trackid'
p370
sS'l32w931'
p371
S'L32w931'
p372
sS'bakugans'
p373
S'Bakugans'
p374
sS'd550'
p375
S'D550'
p376
sS'comprafacil'
p377
S'Comprafacil'
p378
sS'tf300tg'
p379
S'Asus tf300tg'
p380
sS'quicktime'
p381
S'Quicktime'
p382
sS'ascension'
p383
S'God of war ascension'
p384
sS'xceed'
p385
S'Xceed'
p386
sS'blutuf'
p387
S'Bluetooth'
p388
sS'coby'
p389
S'Coby'
p390
sS'moschino'
p391
S'Moschino'
p392
sS'vibe'
p393
S'Gradiente vibe'
p394
sS's2'
p395
S'Galaxy s2'
p396
sS'samsumg'
p397
S'Samsumg'
p398
sS'mamute'
p399
S'Megamamute'
p400
sS'sansumg'
p401
S'Samsung'
p402
sS'polishop'
p403
S'Polishop'
p404
sS's4'
p405
S'Samsung galaxy s4'
p406
sS'machine'
p407
S'Time machine'
p408
sS'maps'
p409
S'Google maps'
p410
sS'carrier'
p411
S'Carrier'
p412
sS'tessar'
p413
S'Carl zeiss tessar'
p414
sS'quadriband'
p415
S'Quadriband'
p416
sS'sii'
p417
S'Samsung galaxy s2'
p418
sS'samgung'
p419
S'Samsung'
p420
sS'hawk'
p421
S'Hawk'
p422
sS'cadence'
p423
S'Cadense'
p424
sS'leifert'
p425
S'Thiago leifert'
p426
sS'sandwich'
p427
S'Ice cream sandwich'
p428
sS'elux'
p429
S'Elux'
p430
sS'olympikus'
p431
S'Olympikus'
p432
sS'olympus'
p433
S'Olympus'
p434
sS'divx'
p435
S'Divx'
p436
sS'navcity'
p437
S'Navcity'
p438
sS'ovi'
p439
S'Ovi'
p440
sS'grow'
p441
S'Grow'
p442
sS'aldiko'
p443
S'Aldiko'
p444
sS'slll'
p445
S'Galaxy s3'
p446
sS'alphaville'
p447
S'Alphaville'
p448
sS'd5100'
p449
S'Nikon d5100'
p450
sS'airprint'
p451
S'Airprint'
p452
sS'spectra'
p453
S'Ambilight spectra'
p454
sS'bean'
p455
S'Android jelly bean'
p456
sS'element'
p457
S'Element'
p458
sS'edilaine'
p459
S'Edilaine'
p460
sS'es8000'
p461
S'Es8000'
p462
sS'mormaii'
p463
S'Mormaii'
p464
sS'p5110'
p465
S'Samsung galaxy tab 2 p5110'
p466
sS'parlux'
p467
S'Parlux'
p468
sS'nvidia'
p469
S'Nvidia'
p470
sS'ethernet'
p471
S'Ethernet'
p472
sS'g12'
p473
S'G12'
p474
sS'photoshop'
p475
S'Photoshop'
p476
sS's3'
p477
S'Galaxy s3'
p478
sS'theft'
p479
S'Grand theft auto'
p480
sS'telecom'
p481
S'Telecom'
p482
sS'muteki'
p483
S'Muteki'
p484
sS'p80'
p485
S'P80'
p486
sS'androids'
p487
S'Androids'
p488
sS'galaxi'
p489
S'Samsung galaxy'
p490
sS'stylus'
p491
S'Caneta stylus'
p492
sS'w350'
p493
S'W350'
p494
sS'magazineluiza'
p495
S'Magazine luiza'
p496
sS'rv411'
p497
S'Rv411'
p498
sS'london'
p499
S'London'
p500
sS'p510'
p501
S'P510'
p502
sS'marvins'
p503
S'Marvins'
p504
sS'zyrium'
p505
S'Zyrium'
p506
sS'japan'
p507
S'Japan'
p508
sS'androide'
p509
S'Androide'
p510
sS'snapdragon'
p511
S'Snapdragon'
p512
sS'birds'
p513
S'Angry birds'
p514
sS'aple'
p515
S'Apple'
p516
sS'tp-link'
p517
S'Tp-link'
p518
sS'steel'
p519
S'Max steel'
p520
sS'nerf'
p521
S'Nerf'
p522
sS'k43e'
p523
S'K43e'
p524
sS'fit'
p525
S'Fit'
p526
sS'kabum'
p527
S'Kabum'
p528
sS'cyanogenmod'
p529
S'Cyanogenmod'
p530
sS'officejet'
p531
S'Hp officejet'
p532
sS'oakley'
p533
S'Oakley'
p534
sS'hobbs'
p535
S'Hobbs'
p536
sS'windos'
p537
S'Windows'
p538
sS'tr101'
p539
S'Tr101'
p540
sS'dual-channel'
p541
S'Dual-channel'
p542
sS'auditore'
p543
S'Ezio euditore'
p544
sS'whirlpool'
p545
S'Whirlpool'
p546
sS'mid1024'
p547
S'Mid1024'
p548
sS'teken'
p549
S'Teken'
p550
sS'zn5'
p551
S'Zn5'
p552
sS'laserjet'
p553
S'Hp laserjet'
p554
sS'megamamute'
p555
S'Megamamute'
p556
sS'gadget'
p557
S'Gadget'
p558
sS'nokia'
p559
S'Nokia'
p560
sS'fiesta'
p561
S'Ford fiesta'
p562
sS'skydrive'
p563
S'Skydrive'
p564
sS'revelations'
p565
S'Resident evil revelations'
p566
sS'tramontina'
p567
S'Tramontina'
p568
sS'sack'
p569
S'Sack'
p570
sS'exr'
p571
S'Exr'
p572
sS'e400'
p573
S'Lg e400'
p574
sS'etrex'
p575
S'Etrex'
p576
sS'lm6200'
p577
S'Lm6200'
p578
sS'vg'
p579
S'Vg 120'
p580
sS'all-in-one'
p581
S'Hp all-in-one'
p582
sS'shulz'
p583
S'Shulz'
p584
sS'p400'
p585
S'Pirelli p400'
p586
sS'kevlar'
p587
S'Kevlar'
p588
sS'vetiver'
p589
S'Vetiver'
p590
sS'divix'
p591
S'Divx'
p592
sS'corolla'
p593
S'Corolla'
p594
sS'lifedrive'
p595
S'Lifedrive'
p596
sS'l4'
p597
S'L4'
p598
sS'leica'
p599
S'Leica'
p600
sS'victory'
p601
S'Mercurial victory 2'
p602
sS'sasuke'
p603
S'Sasuke'
p604
sS'zeiss'
p605
S'Carl zeiss'
p606
sS'c2-01'
p607
S'C2-01'
p608
sS'xls'
p609
S'Xls'
p610
sS'm\xc3\xa1gic'
p611
S'Controle m\xc3\xa1gic'
p612
sS'a3+'
p613
S'A3+'
p614
sS'd3200'
p615
S'D3200'
p616
sS'antutu'
p617
S'Antutu'
p618
sS'fizik'
p619
S'Fizik'
p620
sS'songbird'
p621
S'Songbird'
p622
sS'house'
p623
S'Lan house'
p624
sS'ef'
p625
S'Ef'
p626
sS'darth'
p627
S'Darth vader'
p628
sS'nagem'
p629
S'Nagem'
p630
sS'z530'
p631
S'Sony ericsson z530'
p632
sS'eletronline'
p633
S'Eletronline'
p634
sS'quadband'
p635
S'Quadband'
p636
sS'springer-carrier'
p637
S'Springer-carrier'
p638
sS'freeware'
p639
S'Freeware'
p640
sS'dellar'
p641
S'Dellar'
p642
sS'halen'
p643
S'Eddie van halen'
p644
sS'lv5500'
p645
S'Lv5500'
p646
sS'sansug'
p647
S'Samsung'
p648
sS'gormitis'
p649
S'Gormitis'
p650
sS'space'
p651
S'Dead space'
p652
sS'blu'
p653
S'Blu-ray'
p654
sS'wd136'
p655
S'Wd136'
p656
sS'valve'
p657
S'Valve'
p658
sS'n96'
p659
S'N96'
p660
sS'eh5300'
p661
S'Samsung eh5300'
p662
sS'n95'
p663
S'Nokia n95'
p664
sS'e-facil'
p665
S'E-facil'
p666
sS'yotube'
p667
S'Youtube'
p668
sS'defy'
p669
S'Defy'
p670
sS'andr\xc3\xb3id'
p671
S'Android'
p672
sS'kazuya'
p673
S'Kazuya'
p674
sS'realplayer'
p675
S'Realplayer'
p676
sS't300'
p677
S'Lg t300'
p678
sS'umbrella'
p679
S'Umbrella'
p680
sS'delonghi'
p681
S'Delonghi'
p682
sS'dirt'
p683
S'Dirt'
p684
sS'ipod'
p685
S'Ipod'
p686
sS'hulk'
p687
S'Hulk'
p688
sS'plex'
p689
S'Plex'
p690
sS'symbian'
p691
S'Symbian os'
p692
sS'iphoto'
p693
S'Iphoto'
p694
sS'gw620'
p695
S'Gw620'
p696
sS'cookie'
p697
S'Lg cookie'
p698
sS'rebel'
p699
S'Canon eos rebel'
p700
sS'e5'
p701
S'Nokia e5'
p702
sS'wi-fi'
p703
S'Wi-fi'
p704
sS'shopfato'
p705
S'Shopfato'
p706
sS'metallica'
p707
S'Metallica'
p708
sS'e2'
p709
S'Tungsten e2'
p710
sS'netshoes'
p711
S'Netshoes'
p712
sS'lx9500'
p713
S'Lx9500'
p714
sS'cacharel'
p715
S'Cacharel'
p716
sS'bratsemp'
p717
S'Brastemp'
p718
sS'route'
p719
S'Route 66'
p720
sS'c50'
p721
S'C50'
p722
sS'e-f\xc3\xa1cil'
p723
S'E-f\xc3\xa1cil'
p724
sS'motocast'
p725
S'Motocast'
p726
sS'fruit'
p727
S'Fruit ninja'
p728
sS'p716'
p729
S'P716'
p730
sS'furby'
p731
S'Furby'
p732
sS'alienware'
p733
S'Alienware'
p734
sS'radeon'
p735
S'Radeon'
p736
sS'thoshiba'
p737
S'Toshiba'
p738
sS'hx755'
p739
S'Hx755'
p740
sS'foston'
p741
S'Foston'
p742
sS'arkham'
p743
S'Arkham'
p744
sS'saving'
p745
S'Energy saving'
p746
sS'bluethoo'
p747
S'Bluetooth'
p748
sS'tonners'
p749
S'Tonners'
p750
sS'gp011'
p751
S'Gps multilaser gp011'
p752
sS's400'
p753
S'S400'
p754
sS'sygic'
p755
S'Sygic'
p756
sS'kobo'
p757
S'Kobo'
p758
sS'warcraft'
p759
S'Warcraft'
p760
sS'ultrafarma'
p761
S'Ultrafarma'
p762
sS'w-fi'
p763
S'Wi-fi'
p764
sS'banderas'
p765
S'Antonio banderas'
p766
sS'xp'
p767
S'Window xp'
p768
sS'ipad2'
p769
S'Ipad 2'
p770
sS'pokemon'
p771
S'Pokemon'
p772
sS'cooktop'
p773
S'Cooktop'
p774
sS'lenoxx'
p775
S'Lenoxx sound'
p776
sS'ios6'
p777
S'Ios 6'
p778
sS'n97'
p779
S'Nokia n97'
p780
sS'toy'
p781
S'Toy story'
p782
sS'lacoste'
p783
S'Lacoste'
p784
sS'sonyericsson'
p785
S'Sony ericsson'
p786
sS'multicenter'
p787
S'Multicenter'
p788
sS'phlips'
p789
S'Philips'
p790
sS'walita'
p791
S'Walita'
p792
sS'myspace'
p793
S'Myspace'
p794
sS'trumotion'
p795
S'Trumotion'
p796
sS'pavillion'
p797
S'Pavillion'
p798
sS'cyberlink'
p799
S'Cyberlink'
p800
sS'euphoria'
p801
S'Euphoria calvin klein'
p802
sS'roche'
p803
S'Roche'
p804
sS'dual-cores'
p805
S'Dual-cores'
p806
sS'home-teather'
p807
S'Home theater'
p808
sS'storm'
p809
S'Naruto: ultimate ninja storm'
p810
sS'widgets'
p811
S'Widgets'
p812
sS'bondfaro'
p813
S'Bondfaro'
p814
sS'gabanna'
p815
S'Dolce gabbana'
p816
sS'eletrolux'
p817
S'Electrolux'
p818
sS'cyber-shot'
p819
S'Cyber-shot'
p820
sS'blurays'
p821
S'Blurays'
p822
sS'dual-sim'
p823
S'Dual-sim'
p824
sS'd7000'
p825
S'D7000'
p826
sS'multi-touch'
p827
S'Multi-touch'
p828
sS'orkut'
p829
S'Orkut'
p830
sS'corning'
p831
S'Corning'
p832
sS'allshare'
p833
S'Allshare'
p834
sS'skyrim'
p835
S'Skyrim'
p836
sS'evil'
p837
S'Resident evil'
p838
sS'linksys'
p839
S'Linksys'
p840
sS'ipads'
p841
S'Ipads'
p842
sS'x6'
p843
S'Nokia x6'
p844
sS'g-tech'
p845
S'Gtech'
p846
sS'htforum'
p847
S'Ht forum'
p848
sS'distance'
p849
S'Distance'
p850
sS'lenovo'
p851
S'Lenovo'
p852
sS'warfare'
p853
S'Call of duty modern warfare'
p854
sS'treo'
p855
S'Treo'
p856
sS't3i'
p857
S'Canon t3i'
p858
sS'bratemp'
p859
S'Brastemp'
p860
sS'mattel'
p861
S'Mattel'
p862
sS'diadora'
p863
S'Diadora'
p864
sS'redemption'
p865
S'Red dead redemption'
p866
sS'transformers'
p867
S'Transformers'
p868
sS'un32d5500'
p869
S'Un32d5500'
p870
sS'montblanc'
p871
S'Montblanc'
p872
sS'kindle'
p873
S'Kindle'
p874
sS'firewire'
p875
S'Firewire'
p876
sS'damned'
p877
S'Lost and damned'
p878
sS'xt317'
p879
S'Motorola xt317'
p880
sS'xt316'
p881
S'Xt316'
p882
sS'donkey'
p883
S'Donkey kong'
p884
sS'counter'
p885
S'Counter strike'
p886
sS'san'
p887
S'Gta san andreas'
p888
sS'tl-wr702n'
p889
S'Tp-link tl-wr702n'
p890
sS'octa-core'
p891
S'Octa-core'
p892
sS'stopplay'
p893
S'Stopplay'
p894
sS'layton'
p895
S'Professor layton'
p896
sS'geforce'
p897
S'Geforce'
p898
sS'n450'
p899
S'N450'
p900
sS'meego'
p901
S'Meego'
p902
sS'lancome'
p903
S'Lanc\xc3\xb4me'
p904
sS'dolby'
p905
S'Dolby'
p906
sS'built'
p907
S'Built'
p908
sS'sx40'
p909
S'Sx40'
p910
sS'arke'
p911
S'Arke'
p912
sS'ypy'
p913
S'Ypy'
p914
sS'z780'
p915
S'Z780'
p916
sS'goorila'
p917
S'Goorila'
p918
sS'arm'
p919
S'Arm'
p920
sS'semp-toshiba'
p921
S'Semp toshiba'
p922
sS'playstore'
p923
S'Playstore'
p924
sS'liv'
p925
S'Liv'
p926
sS'wx100'
p927
S'Sony wx100'
p928
sS'ativ'
p929
S'Samsung ativ'
p930
sS'hatch'
p931
S'Focus hatch'
p932
sS'a300'
p933
S'A300'
p934
sS'shoptime'
p935
S'Shoptime'
p936
sS'switching'
p937
S'In plane switching'
p938
sS'honeycomb'
p939
S'Android honeycomb'
p940
sS'foreman'
p941
S'George foreman'
p942
sS'p5100'
p943
S'P5100'
p944
sS'x-box'
p945
S'Xbox'
p946
sS'wii-fi'
p947
S'Wi-fi'
p948
sS'd90'
p949
S'D90'
p950
sS'powershot'
p951
S'Canon powershot'
p952
sS'ex115'
p953
S'Ex115'
p954
sS'w8'
p955
S'W8'
p956
sS'selle'
p957
S'Selle'
p958
sS'most'
p959
S'Need for speed most wanted'
p960
sS'bioshock'
p961
S'Bioshock'
p962
sS'c397'
p963
S'C397'
p964
sS'logitech'
p965
S'Logitech'
p966
sS'c398'
p967
S'Lg c398'
p968
sS'trusurround'
p969
S'Trusurround'
p970
sS'navigon'
p971
S'Navigon'
p972
sS'medal'
p973
S'Medal of honor'
p974
sS'macbook'
p975
S'Macbook air'
p976
sS'i3'
p977
S'Intel core i3'
p978
sS'blutooth'
p979
S'Blutooth'
p980
sS'alcatel'
p981
S'Alcatel'
p982
sS'd-link'
p983
S'D-link'
p984
sS'garthen'
p985
S'Garthen'
p986
sS'egoiste'
p987
S'Egoiste'
p988
sS'fujitsu'
p989
S'Fujitsu'
p990
sS'motoblur'
p991
S'Motoblur'
p992
sS'bada'
p993
S'Bada'
p994
sS'citroen'
p995
S'Citroen'
p996
sS'asus'
p997
S'Asus'
p998
sS'zire'
p999
S'Zire'
p1000
sS'netcast'
p1001
S'Netcast'
p1002
sS'lorenzeti'
p1003
S'Lorenzetti'
p1004
sS'marvel'
p1005
S'Marvel'
p1006
sS'shop'
p1007
S'Crnet shop'
p1008
sS'hepa'
p1009
S'Hepa'
p1010
sS'asphalt'
p1011
S'Asphalt 7'
p1012
sS'es7000'
p1013
S'Samsung es7000'
p1014
sS'ringtones'
p1015
S'Ringtones'
p1016
sS'celeron'
p1017
S'Celeron'
p1018
sS'atom'
p1019
S'Atom'
p1020
sS'ux21e'
p1021
S'Zenbook ux21e'
p1022
sS'brother'
p1023
S'Brother'
p1024
sS'nikkon'
p1025
S'Nikon'
p1026
sS'vader'
p1027
S'Darth vader'
p1028
sS'wx50'
p1029
S'Sony wx50'
p1030
sS'turbo-chama'
p1031
S'Turbo-chama'
p1032
sS'gazin'
p1033
S'Gazin'
p1034
sS'firmeware'
p1035
S'Firmeware'
p1036
sS'ocarina'
p1037
S'Zelda ocarine of time'
p1038
sS'dynacom'
p1039
S'Dynacom'
p1040
sS't375'
p1041
S'T375'
p1042
sS'playstation3'
p1043
S'Playstation3'
p1044
sS'a500'
p1045
S'Acer iconia tab a500'
p1046
sS'p3186'
p1047
S'Multilaser p3186'
p1048
sS'i786'
p1049
S'Nextel i786'
p1050
sS'k300i'
p1051
S'K300i'
p1052
sS'sparks'
p1053
S'Sparks'
p1054
sS'qslide'
p1055
S'Qslide'
p1056
sS'scorpion'
p1057
S'Scorpion'
p1058
sS'dd-wrt'
p1059
S'Dd-wrt'
p1060
sS'windowns'
p1061
S'Windows'
p1062
sS'wd0854'
p1063
S'Samsung eco bubble wd0854'
p1064
sS'masterfrio'
p1065
S'Masterfrio'
p1066
sS'n7100'
p1067
S'N7100'
p1068
sS'k750i'
p1069
S'K750i'
p1070
sS'dolce'
p1071
S'Dolce gabbana'
p1072
sS'rabane'
p1073
S'Paco rabane'
p1074
sS'circle'
p1075
S'Circle pad pro'
p1076
sS'galaxys'
p1077
S'Galaxys'
p1078
sS'c3-00'
p1079
S'C3-00'
p1080
sS'ipad'
p1081
S'Ipad'
p1082
sS'dl'
p1083
S'Dl'
p1084
sS'hotmail'
p1085
S'Hotmail'
p1086
sS'jellybean'
p1087
S'Android jellybean'
p1088
sS'ef\xc3\xa1cil'
p1089
S'Ef\xc3\xa1cil'
p1090
sS'shoestock'
p1091
S'Shoestock'
p1092
sS'wb150f'
p1093
S'Samsung smart wb150f'
p1094
sS'amazon'
p1095
S'Amazon'
p1096
sS'i9500'
p1097
S'Galaxy s4 i9500'
p1098
sS'fallout'
p1099
S'Fallout'
p1100
sS'bluray'
p1101
S'Bluray'
p1102
sS'gormiti'
p1103
S'Gormiti'
p1104
sS'lh70yd'
p1105
S'Lh70yd'
p1106
sS'maniavirtual'
p1107
S'Maniavirtual'
p1108
sS'ds'
p1109
S'Nintendo ds'
p1110
sS'bluethoot'
p1111
S'Bluetooth'
p1112
sS'megaware'
p1113
S'Megaware'
p1114
sS'pl42c450'
p1115
S'Pl42c450'
p1116
sS'p525'
p1117
S'P525'
p1118
sS'progressive'
p1119
S'Progressive scan'
p1120
sS'deskjet'
p1121
S'Deskjet'
p1122
sS'w200'
p1123
S'Sony ericsson w200'
p1124
sS'bonfaro'
p1125
S'Bondfaro'
p1126
sS'nettv'
p1127
S'Net tv'
p1128
sS'digigrow'
p1129
S'Digigrow'
p1130
sS'sw4'
p1131
S'Sw4'
p1132
sS'epson'
p1133
S'Epson'
p1134
sS'gears'
p1135
S'Gears of war'
p1136
sS'motorolas'
p1137
S'Motorola'
p1138
sS'dualchip'
p1139
S'Dual-chip'
p1140
sS'x-785'
p1141
S'Olympus x785'
p1142
sS'wg'
p1143
S'Wg sport'
p1144
sS'optimus'
p1145
S'Optimus'
p1146
sS'le12b'
p1147
S'Le12b'
p1148
sS'i5-3317u'
p1149
S'I5-3317u'
p1150
sS'techline'
p1151
S'Techline'
p1152
sS'rockstar'
p1153
S'Rockstar'
p1154
sS'spore'
p1155
S'Spore'
p1156
sS'crackle'
p1157
S'Crackle'
p1158
sS'megatron'
p1159
S'Megatron'
p1160
sS'marston'
p1161
S'John marston'
p1162
sS'w5'
p1163
S'W5'
p1164
sS'gt-i9300'
p1165
S'Gt-i9300'
p1166
sS'torrents'
p1167
S'Torrents'
p1168
sS'marinex'
p1169
S'Marinex'
p1170
sS'e435'
p1171
S'E435'
p1172
sS'gt-i8520'
p1173
S'Gt-i8520'
p1174
sS'symbian^3'
p1175
S'Symbian'
p1176
sS'ebay'
p1177
S'Ebay'
p1178
sS'cyber-shots'
p1179
S'Cyber-shot'
p1180
sS'neox'
p1181
S'Neox'
p1182
sS'gmail'
p1183
S'Gmail'
p1184
sS'shotime'
p1185
S'Shoptime'
p1186
sS'athlon'
p1187
S'Athlon'
p1188
sS'gree'
p1189
S'Gree'
p1190
sS'wallmart'
p1191
S'Walmart'
p1192
sS'shimano'
p1193
S'Shimano'
p1194
sS'pickup'
p1195
S'Pickup'
p1196
sS'buscap\xc3\xa9'
p1197
S'Buscap\xc3\xa9'
p1198
sS'la6200'
p1199
S'La6200'
p1200
sS'ishimura'
p1201
S'Usg ishimura'
p1202
sS'tectoy'
p1203
S'Tectoy'
p1204
sS'simbian'
p1205
S'Symbian'
p1206
sS'keynote'
p1207
S'Keynote'
p1208
sS'bonito-ms'
p1209
S'Bonito \xe2\x80\x93 mg'
p1210
sS'jobs'
p1211
S'Steve jobs'
p1212
sS'scrolls'
p1213
S'Elder scrolls'
p1214
sS'lg'
p1215
S'Lg'
p1216
sS'nitendo'
p1217
S'Nitendo'
p1218
sS'herrera'
p1219
S'Carolina herrera'
p1220
sS'patati'
p1221
S'Patati'
p1222
sS'lifechat'
p1223
S'Microsoft lifechat'
p1224
sS'wi'
p1225
S'Wi-fi'
p1226
sS'boss'
p1227
S'Hugo boss'
p1228
sS'guitar'
p1229
S'Guitar hero'
p1230
sS'bosh'
p1231
S'Bosch'
p1232
sS'econavi'
p1233
S'Econavi'
p1234
sS'bdp-s590'
p1235
S'Bdp-s590'
p1236
sS'bravox'
p1237
S'Bravox'
p1238
sS'bluetoth'
p1239
S'Bluetooth'
p1240
sS'last'
p1241
S'The last of us'
p1242
sS'buster'
p1243
S'H-buster'
p1244
sS'jelly'
p1245
S'Jelly bean'
p1246
sS'nespresso'
p1247
S'Nespresso'
p1248
sS'burigotto'
p1249
S'Burigotto'
p1250
sS'mont'
p1251
S'Montblanc'
p1252
sS'mizure'
p1253
S'Mizure'
p1254
sS'berry'
p1255
S'Black berry'
p1256
sS'wheels'
p1257
S'Hot wheels'
p1258
sS'fastshop'
p1259
S'Fastshop'
p1260
sS'load'
p1261
S'Front'
p1262
sS'nex-5n'
p1263
S'Nex-5n'
p1264
sS'pionner'
p1265
S'Pionner'
p1266
sS'lse12'
p1267
S'Lse12'
p1268
sS'nextel'
p1269
S'Nextel'
p1270
sS'skipe'
p1271
S'Skype'
p1272
sS'pou'
p1273
S'Pou'
p1274
sS'speedlite'
p1275
S'Speedlite'
p1276
sS'marketplace'
p1277
S'Marketplace'
p1278
sS'crysis'
p1279
S'Crysis'
p1280
sS'turion'
p1281
S'Turion'
p1282
sS'suggar'
p1283
S'Suggar'
p1284
sS'linux'
p1285
S'Linux'
p1286
sS'un40d5500'
p1287
S'Samsung un40d5500'
p1288
sS'touch\xc2\xb4s'
p1289
S'Ipod touch'
p1290
sS'elementors'
p1291
S'Elementors'
p1292
sS'sandisk'
p1293
S'Sandisk'
p1294
sS'beats'
p1295
S'Beats'
p1296
sS'belt'
p1297
S'Belt clip'
p1298
sS'aiptek'
p1299
S'Aiptek'
p1300
sS'esmaltec'
p1301
S'Esmaltec'
p1302
sS'devil'
p1303
S'Devil may cry'
p1304
sS'chrome'
p1305
S'Chrome'
p1306
sS'mizuno'
p1307
S'Mizuno'
p1308
sS'nike+'
p1309
S'Nike+'
p1310
sS'mark'
p1311
S'Canon 5d mark'
p1312
sS'mart'
p1313
S'Walmart'
p1314
sS'exmor'
p1315
S'Exmor'
p1316
sS'trigger'
p1317
S'Dead trigger'
p1318
sS'x-reality'
p1319
S'X-reality'
p1320
sS'gbz4i'
p1321
S'George foreman gbz4i'
p1322
sS'naruto'
p1323
S'Naruto'
p1324
sS'fry'
p1325
S'Philco air fry'
p1326
sS'x-7'
p1327
S'X-7'
p1328
sS'm100'
p1329
S'M100'
p1330
sS'dual-chip'
p1331
S'Dual-chip'
p1332
sS'baixaki'
p1333
S'Baixaki'
p1334
sS'lanc\xc3\xb4me'
p1335
S'Lanc\xc3\xb4me'
p1336
sS'penalty'
p1337
S'Penalty'
p1338
sS'track-id'
p1339
S'Track-id'
p1340
sS'imac'
p1341
S'Imac'
p1342
sS'nikon'
p1343
S'Nikon'
p1344
sS'i296'
p1345
S'I296'
p1346
sS'lgs'
p1347
S'Lgs'
p1348
sS'ebit'
p1349
S'Ebit'
p1350
sS'e-reader'
p1351
S'E-reader'
p1352
sS'garmin'
p1353
S'Garmin'
p1354
sS'byzance'
p1355
S'Byzance'
p1356
sS'c2'
p1357
S'Nokia c2'
p1358
sS's-voice'
p1359
S'S voice'
p1360
sS'p2'
p1361
S'P2'
p1362
sS'polly'
p1363
S'Polly pocket'
p1364
sS'dsc-w5'
p1365
S'Sony dsc-w5'
p1366
sS'vimeo'
p1367
S'Vimeo'
p1368
sS'dualcore'
p1369
S'Dualcore'
p1370
sS'hasbro'
p1371
S'Hasbro'
p1372
sS'bluetooh'
p1373
S'Bluetooh'
p1374
sS'kodak'
p1375
S'Eastman kodak company'
p1376
sS'rope'
p1377
S'Cut the rope'
p1378
sS'qualcomm'
p1379
S'Qualcomm'
p1380
sS'gucci'
p1381
S'Gucci'
p1382
sS'toyster'
p1383
S'Toyster'
p1384
sS'sony-ericsson'
p1385
S'Sony-ericsson'
p1386
sS'tany'
p1387
S'Tany'
p1388
sS'blackberry'
p1389
S'Blackberry'
p1390
sS'spacebr'
p1391
S'Spacebr'
p1392
sS'kyros'
p1393
S'Coby kyros'
p1394
sS'accu-chek'
p1395
S'Accu-chek'
p1396
sS'windowsphone'
p1397
S'Windows phone'
p1398
sS'seven'
p1399
S'Windows 7'
p1400
sS'bcash'
p1401
S'Bcash'
p1402
sS'samsara'
p1403
S'Samsara'
p1404
sS'susi'
p1405
S'Susi'
p1406
sS'sticker'
p1407
S'Mario sticker'
p1408
sS'brastempo'
p1409
S'Brastemp'
p1410
sS'gangstar'
p1411
S'Gangstar'
p1412
sS'surface'
p1413
S'Surface'
p1414
sS'sleeping'
p1415
S'Sleeping dogs'
p1416
sS'xt916'
p1417
S'Motorola xt916'
p1418
sS'tc-p50v20b'
p1419
S'Panasonic tc-p50v20b'
p1420
sS'einhell'
p1421
S'Einhell'
p1422
sS'clio'
p1423
S'Clio'
p1424
sS'protein'
p1425
S'Protein'
p1426
sS'vtech'
p1427
S'Vtech'
p1428
sS'coca-cola'
p1429
S'Coca-cola'
p1430
sS't-type'
p1431
S'T-type'
p1432
sS'zeebo'
p1433
S'Zeebo'
p1434
sS'cmyk'
p1435
S'Cmyk'
p1436
sS'hong'
p1437
S'Hong kong'
p1438
sS'century'
p1439
S'Century'
p1440
sS'x64'
p1441
S'X64'
p1442
sS'k850'
p1443
S'Sony ericsson k850'
p1444
sS'windows7'
p1445
S'Microsoft windows 7'
p1446
sS'bethesda'
p1447
S'Bethesda'
p1448
sS'pokewalker'
p1449
S'Pok\xc3\xa9walker'
p1450
sS'ex655'
p1451
S'Ex655'
p1452
sS'android'
p1453
S'Android'
p1454
sS'lithium'
p1455
S'Lithium'
p1456
sS'spears'
p1457
S'Britney spears'
p1458
sS'quadricore'
p1459
S'Quad-core'
p1460
sS'xt305'
p1461
S'Xt305'
p1462
sS'p350'
p1463
S'P350'
p1464
sS'tekken'
p1465
S'Tekken'
p1466
sS'phn'
p1467
S'Netbook philco phn'
p1468
sS'ocz'
p1469
S'Ocz'
p1470
sS'sepha'
p1471
S'S\xc3\xa9pha'
p1472
sS'hunter'
p1473
S'Silent hunter'
p1474
sS'procell'
p1475
S'Procell'
p1476
sS'rapidfire'
p1477
S'Rapid fire'
p1478
sS'leopard'
p1479
S'Leopard'
p1480
sS'i7'
p1481
S'I7'
p1482
sS'sl55'
p1483
S'Sl55'
p1484
sS'walmart'
p1485
S'Walmart'
p1486
sS'bakugan'
p1487
S'Bakugan'
p1488
sS'student'
p1489
S'Student'
p1490
sS'v9'
p1491
S'Zte v9'
p1492
sS'woofer'
p1493
S'Woofer'
p1494
sS'simplink'
p1495
S'Simplink'
p1496
sS'blutoof'
p1497
S'Bluetooth'
p1498
sS'adreno'
p1499
S'Adreno 205'
p1500
sS'infamous'
p1501
S'Infamous'
p1502
sS'c905'
p1503
S'Sony ericsson c905'
p1504
sS'joop'
p1505
S'Joop'
p1506
sS'rain'
p1507
S'Heavy rain'
p1508
sS'xlp-332'
p1509
S'Cce-xlp-332'
p1510
sS'valerie'
p1511
S'Valerie'
p1512
sS'trapp'
p1513
S'Trapp'
p1514
sS'h55'
p1515
S'H55'
p1516
sS'simbyan'
p1517
S'Simbyan'
p1518
sS'kanui'
p1519
S'Kanui'
p1520
sS'hx1'
p1521
S'Sony hx1'
p1522
sS'mid8024'
p1523
S'Mid8024'
p1524
sS'pontofrio'
p1525
S'Pontofrio'
p1526
sS'oregon'
p1527
S'Oregon'
p1528
sS'hx100v'
p1529
S'Sony hx100v'
p1530
sS'dku-5'
p1531
S'Dku-5'
p1532
sS'left'
p1533
S'Left 4 dead'
p1534
sS'itouch'
p1535
S'Itouch'
p1536
sS'azzaro'
p1537
S'Azzaro'
p1538
sS'w800'
p1539
S'Sony ericsson w800'
p1540
sS'panassonic'
p1541
S'Panassonic'
p1542
sS'milestone'
p1543
S'Milestone'
p1544
sS'attos'
p1545
S'Attos'
p1546
sS'actions'
p1547
S'Smart actions'
p1548
sS'blueray'
p1549
S'Blu-ray'
p1550
sS'dvd-rw'
p1551
S'Dvd-rw'
p1552
sS'lorenzetti'
p1553
S'Lorenzetti'
p1554
sS'crytek'
p1555
S'Crytek'
p1556
sS'unicode'
p1557
S'Unicode'
p1558
sS'touch'
p1559
S'Touch'
p1560
sS'love'
p1561
S'I love love'
p1562
sS'killzone'
p1563
S'Killzone'
p1564
sS'ps1'
p1565
S'Playstation 1'
p1566
sS'speed'
p1567
S'Need for speed'
p1568
sS'satio'
p1569
S'Satio'
p1570
sS'zamax'
p1571
S'Zamax'
p1572
sS'nokias'
p1573
S'Nokia'
p1574
sS'lm5800'
p1575
S'Lm5800'
p1576
sS'yamaha'
p1577
S'Yamaha'
p1578
sS'andrid'
p1579
S'Android'
p1580
sS'n73'
p1581
S'N73'
p1582
sS'sky'
p1583
S'Sky'
p1584
sS'iphones'
p1585
S'Iphones'
p1586
sS'microsd'
p1587
S'Microsd'
p1588
sS'kinect'
p1589
S'Kinect'
p1590
sS'windons'
p1591
S'Windows'
p1592
sS'caloi'
p1593
S'Caloi'
p1594
sS'whatsapp'
p1595
S'Whatsapp'
p1596
sS'gt-s6102'
p1597
S'Gt-s6102'
p1598
sS'pampers'
p1599
S'Pampers'
p1600
sS'x2-00'
p1601
S'Nokia x2-00'
p1602
sS'v-brake'
p1603
S'V-brake'
p1604
sS'sonic'
p1605
S'Sonic'
p1606
sS'jake'
p1607
S'Jake'
p1608
sS'kirby'
p1609
S'Kirby'
p1610
sS'facebbok'
p1611
S'Facebook'
p1612
sS'mov'
p1613
S'Mov'
p1614
sS'gamecube'
p1615
S'Gamecube'
p1616
sS'siemens'
p1617
S'Siemens'
p1618
sS'swipe'
p1619
S'Swipe'
p1620
sS'gameboy'
p1621
S'Game boy'
p1622
sS'e425'
p1623
S'E425'
p1624
sS'durex'
p1625
S'Durex'
p1626
sS'mypad'
p1627
S'Tablet sti mypad'
p1628
sS'fz150'
p1629
S'Fz150'
p1630
sS'motorola'
p1631
S'Motorola'
p1632
sS'imaginext'
p1633
S'Imaginext'
p1634
sS'mabe'
p1635
S'Mabe'
p1636
sS'flipout'
p1637
S'Motorola flipout'
p1638
sS'kennex'
p1639
S'Kennex'
p1640
sS'pokemons'
p1641
S'Pokemons'
p1642
sS'iphone5'
p1643
S'Iphone 5'
p1644
sS'thunderbolt'
p1645
S'Thunderbolt'
p1646
sS'xbox'
p1647
S'Xbox'
p1648
sS'shutter'
p1649
S'Smile schutter'
p1650
sS'armani'
p1651
S'Armani'
p1652
sS'macbooks'
p1653
S'Macbook'
p1654
sS'fnac'
p1655
S'Fnac'
p1656
sS'cineral'
p1657
S'Cineral'
p1658
sS'iphone4'
p1659
S'Iphone4'
p1660
sS'inspiron'
p1661
S'Inspiron'
p1662
sS'semp'
p1663
S'Semp toshiba'
p1664
sS'draw'
p1665
S'Corel draw'
p1666
sS'nx10'
p1667
S'Nx10'
p1668
sS'drop'
p1669
S'Dream drop distance'
p1670
sS'blluetooth'
p1671
S'Bluetooth'
p1672
sS'brit\xc3\xa2nia'
p1673
S'Brit\xc3\xa2nia'
p1674
sS'n800'
p1675
S'Nokia n800'
p1676
sS's100'
p1677
S'S100'
p1678
sS'creed'
p1679
S"Assassin's creed"
p1680
sS'atheros'
p1681
S'Atheros'
p1682
sS'streaming'
p1683
S'Streaming'
p1684
sS'ss90x'
p1685
S'Ss90x'
p1686
sS'xt918'
p1687
S'Xt918'
p1688
sS'corujamix'
p1689
S'Corujamix'
p1690
sS'exilim'
p1691
S'Casio exilim'
p1692
sS'd60'
p1693
S'D60'
p1694
sS'playmobil'
p1695
S'Playmobil'
p1696
sS'andorid'
p1697
S'Android'
p1698
sS'gogear'
p1699
S'Gogear'
p1700
sS'pok\xc3\xa9mon'
p1701
S'Pok\xc3\xa9mon'
p1702
sS'blue-ray'
p1703
S'Blu-ray'
p1704
sS'x993'
p1705
S'X993'
p1706
sS'st500'
p1707
S'St500'
p1708
sS'slick'
p1709
S'Slick'
p1710
sS'creative'
p1711
S'Creative'
p1712
sS'boucheron'
p1713
S'Boucheron'
p1714
sS'pioneer'
p1715
S'Pioneer'
p1716
sS'pen'
p1717
S'Pen drive'
p1718
sS'passion'
p1719
S'Passion de elizabeth taylor'
p1720
sS'qbex'
p1721
S'Qbex'
p1722
sS'e71'
p1723
S'E71'
p1724
sS'organza'
p1725
S'Organza'
p1726
sS'leader'
p1727
S'Leader'
p1728
sS'c3510'
p1729
S'Samsung c3510'
p1730
sS'easylink'
p1731
S'Easylink'
p1732
sS'a6x'
p1733
S'Apple a6x'
p1734
sS'hx200v'
p1735
S'Sony hx200v'
p1736
sS'mb525'
p1737
S'Mb525'
p1738
sS'intelbras'
p1739
S'Intelbras'
p1740
sS'lexmark'
p1741
S'Lexmark'
p1742
sS'rj-45'
p1743
S'Rj-45'
p1744
sS'iconia'
p1745
S'Acer iconia'
p1746
sS'aerosmith'
p1747
S'Aerosmith'
p1748
sS'gx200'
p1749
S'Gx200'
p1750
sS'raider'
p1751
S'Tomb raider'
p1752
sS'pajero'
p1753
S'Pajero'
p1754
sS'google+'
p1755
S'Google+'
p1756
sS't100'
p1757
S'T100'
p1758
sS'high-end'
p1759
S'High-end'
p1760
sS'quickmemo'
p1761
S'Quick memo'
p1762
sS'hbuster'
p1763
S'Hbuster'
p1764
sS'a3'
p1765
S'A3'
p1766
sS'isight'
p1767
S'Isight'
p1768
sS's5is'
p1769
S'Canon s5is'
p1770
sS'monark'
p1771
S'Monark'
p1772
sS'andoid'
p1773
S'Andoid'
p1774
sS'kikos'
p1775
S'Kikos'
p1776
sS'warhammer'
p1777
S'Warhammer'
p1778
sS'gingerbread'
p1779
S'Gingerbread'
p1780
sS'tomb'
p1781
S'Tomb raider'
p1782
sS'rarz'
p1783
S'Motorola razr'
p1784
sS'simens'
p1785
S'Siemens'
p1786
sS'comfee'
p1787
S'Comfee'
p1788
sS'duke'
p1789
S'Duke'
p1790
sS'h9'
p1791
S'H9'
p1792
sS'whats'
p1793
S'Whatsapp'
p1794
sS'icloud'
p1795
S'Icloud'
p1796
sS'civic'
p1797
S'Honda civic'
p1798
sS'iomega'
p1799
S'Iomega'
p1800
sS'd8000'
p1801
S'Samsung d8000'
p1802
sS'a6'
p1803
S'A6'
p1804
sS'splint'
p1805
S'Splint'
p1806
sS'tiguana'
p1807
S'Tiguana'
p1808
sS'chris'
p1809
S'Chris'
p1810
sS'google'
p1811
S'Google'
p1812
sS'corsair'
p1813
S'Corsair'
p1814
sS'ppt'
p1815
S'Ppt'
p1816
sS'z550'
p1817
S'Z550'
p1818
sS'gt-i9200'
p1819
S'Gt-i9200'
p1820
sS'w300i'
p1821
S'W300i'
p1822
sS'noblige'
p1823
S'Lg noblige'
p1824
sS'sonny'
p1825
S'Sony'
p1826
sS'wal'
p1827
S'Walmart'
p1828
sS'u9'
p1829
S'Motorola u9'
p1830
sS'i-phone'
p1831
S'I-phone'
p1832
sS'pearl'
p1833
S'Pokemon pearl'
p1834
sS'jetpack'
p1835
S'Jetpack joyride'
p1836
sS'a290'
p1837
S'A290'
p1838
sS'fast'
p1839
S'Fast shop'
p1840
sS'smsung'
p1841
S'Samsung'
p1842
sS'counter-strike'
p1843
S'Counter-strike'
p1844
sS'xps'
p1845
S'Xps'
p1846
sS'bulgari'
p1847
S'Bulgari'
p1848
sS'waze'
p1849
S'Waze'
p1850
sS'repeater'
p1851
S'Repeater'
p1852
sS'xperia'
p1853
S'Xperia'
p1854
sS'batman'
p1855
S'Batman'
p1856
sS'basic'
p1857
S'Windows home basic'
p1858
sS'xerox'
p1859
S'Xerox'
p1860
sS'ambiligth'
p1861
S'Ambiligth'
p1862
sS'remb430cdm'
p1863
S'Remb430cdm'
p1864
sS'crank'
p1865
S'Crank brothers'
p1866
sS'decoder'
p1867
S'Decoder'
p1868
sS'bluetooth'
p1869
S'Bluetooth'
p1870
sS'true'
p1871
S'True motion'
p1872
sS'astra'
p1873
S'Astra'
p1874
sS'bvlgari'
p1875
S'Bvlgari'
p1876
sS'mediaplay'
p1877
S'Mediaplay'
p1878
sS'pavilion'
p1879
S'Hp pavilion'
p1880
sS'monopoly'
p1881
S'Monopoly'
p1882
sS'longstrike'
p1883
S'Longstrike'
p1884
sS'w630'
p1885
S'Sony cyber-shot w630'
p1886
sS'mists'
p1887
S'Mists of pandaria'
p1888
sS'lav'
p1889
S'Lav'
p1890
sS'w30'
p1891
S'Sony w30'
p1892
sS'layr'
p1893
S'Layr'
p1894
sS'p200'
p1895
S'P200'
p1896
sS'blu-ray'
p1897
S'Blu-ray'
p1898
sS'a4'
p1899
S'A4'
p1900
sS'azw'
p1901
S'Azw'
p1902
sS'v30'
p1903
S'V30'
p1904
sS'mallory'
p1905
S'Mallory'
p1906
sS'pentax'
p1907
S'Pentax'
p1908
sS'sticks'
p1909
S'Memory sticks'
p1910
sS'inkjet'
p1911
S'Inkjet'
p1912
sS'n\xc3\xb3kia'
p1913
S'N\xc3\xb3kia'
p1914
sS'd3000'
p1915
S'Nikon d3000'
p1916
sS'scarlet'
p1917
S'Scarlet'
p1918
sS'qwerty'
p1919
S'Qwerty'
p1920
sS'calvin'
p1921
S'Calvin klein'
p1922
sS'fz100'
p1923
S'Fz100'
p1924
sS'wiimotion'
p1925
S'Wii motion'
p1926
sS'oxer'
p1927
S'Oxer'
p1928
sS'ship'
p1929
S'Dual chip'
p1930
sS'cybertron'
p1931
S'Fall of cybertron'
p1932
sS'ipods'
p1933
S'Ipods'
p1934
sS'l32w831'
p1935
S'Aoc l32w831'
p1936
sS'kombat'
p1937
S'Mortal kombat'
p1938
sS'cream'
p1939
S'Ice cream sandwich'
p1940
sS'tecmundo'
p1941
S'Tecmundo'
p1942
sS'lt15f'
p1943
S'Lt15f'
p1944
sS'oac'
p1945
S'Oac'
p1946
sS'benq-siemens'
p1947
S'Benq-siemens'
p1948
sS'gorilla'
p1949
S'Gorilla glass'
p1950
sS'triband'
p1951
S'Triband'
p1952
sS'jenga'
p1953
S'Jenga'
p1954
sS'zelda'
p1955
S'Zelda'
p1956
sS'kipling'
p1957
S'Kipling'
p1958
sS'xloud'
p1959
S'Xloud'
p1960
sS'phenom'
p1961
S'Phenom'
p1962
sS'dv5'
p1963
S'Dv5'
p1964
sS'j\xc2\xb4adore'
p1965
S"J'adore"
p1966
sS'you'
p1967
S'Youtube'
p1968
sS'multilaser'
p1969
S'Multilaser'
p1970
sS'tess'
p1971
S'Tess'
p1972
sS'multipane'
p1973
S'Multipane'
p1974
sS'cappoia'
p1975
S'Cappoia'
p1976
sS'electrolux'
p1977
S'Eletrolux'
p1978
sS'nilko'
p1979
S'Nilko'
p1980
sS's2600'
p1981
S'S2600'
p1982
sS'le4600'
p1983
S'Lg le4600'
p1984
sS'janome'
p1985
S'Janome'
p1986
sS'wars'
p1987
S'Star wars'
p1988
sS'a700'
p1989
S'A700'
p1990
sS'makita'
p1991
S'Makita'
p1992
sS'ta-1020w'
p1993
S'Mypad ta 1020w'
p1994
sS'netgear'
p1995
S'Netgear'
p1996
sS'a5'
p1997
S'Chip a5'
p1998
sS'diablo'
p1999
S'Diablo'
p2000
sS'playmobiol'
p2001
S'Playmobil'
p2002
sS'taiff'
p2003
S'Taiff'
p2004
sS'a9'
p2005
S'A9'
p2006
sS'dropbox'
p2007
S'Dropbox'
p2008
sS'samsungs'
p2009
S'Samsung'
p2010
sS'wallita'
p2011
S'Walita'
p2012
sS'sudoku'
p2013
S'Sudoku'
p2014
sS'assassins'
p2015
S"Assassin's creed"
p2016
sS'fighter'
p2017
S'Street fighter'
p2018
sS'batcaverna'
p2019
S'Bat-caverna'
p2020
sS'corel'
p2021
S'Corel draw'
p2022
sS'dual-core'
p2023
S'Dual-core'
p2024
sS'sacks'
p2025
S'Sacks'
p2026
sS'touchwiz'
p2027
S'Touchwiz'
p2028
sS'mpt-10cr'
p2029
S'Mpt-10cr'
p2030
sS'wifi'
p2031
S'Wifi'
p2032
sS'n8'
p2033
S'N8'
p2034
sS'n9'
p2035
S'Nokia n9'
p2036
sS'a8'
p2037
S'A8'
p2038
sS'god'
p2039
S'God of war'
p2040
sS'micro-sim'
p2041
S'Microsim'
p2042
sS'k700i'
p2043
S'Sony ericsson k700i'
p2044
sS'clavin'
p2045
S'Clavin'
p2046
s.