(dp0
S'feeds'
p1
S'Feeds'
p2
sS'golf'
p3
S'Golf'
p4
sS'mute'
p5
S'Mute'
p6
sS'hamburger'
p7
S'Hamburger'
p8
sS'wirelles'
p9
S'Wirelles'
p10
sS'sites'
p11
S'Sites'
p12
sS'bikes'
p13
S'Bikes'
p14
sS'tablets'
p15
S'Tablets'
p16
sS'ultra-slim'
p17
S'Ultra-slim'
p18
sS'keyboard'
p19
S'Keyboard'
p20
sS'no-break'
p21
S'No-break'
p22
sS'zoo'
p23
S'Zoom'
p24
sS'smartfone'
p25
S'Smartphone'
p26
sS'hardcore'
p27
S'Hardcore'
p28
sS'notbooks'
p29
S'Notbooks'
p30
sS'slot'
p31
S'Slot'
p32
sS'pen-drive'
p33
S'Pen-drive'
p34
sS'slow'
p35
S'Slow'
p36
sS'hi-tech'
p37
S'Hi-tech'
p38
sS'tablet'
p39
S'Tablet'
p40
sS'disigner'
p41
S'Design'
p42
sS'personal'
p43
S'Personal'
p44
sS'touch-pad'
p45
S'Touch-pad'
p46
sS'delays'
p47
S'Delays'
p48
sS'notebooks'
p49
S'Notebooks'
p50
sS'joysticks'
p51
S'Joysticks'
p52
sS'desktop'
p53
S'Desktop'
p54
sS'blog'
p55
S'Blog'
p56
sS'source'
p57
S'Source'
p58
sS'sait'
p59
S'Site'
p60
sS'superzoom'
p61
S'Superzoom'
p62
sS'mail'
p63
S'Mail'
p64
sS'sniper'
p65
S'Sniper'
p66
sS'reset'
p67
S'Reset'
p68
sS'touchscreem'
p69
S'Touch screen'
p70
sS'dising'
p71
S'Design'
p72
sS'desainer'
p73
S'Design'
p74
sS'stand-by'
p75
S'Stand-by'
p76
sS'theather'
p77
S'Home theater'
p78
sS'scren'
p79
S'Touchscreen'
p80
sS'made'
p81
S'Made'
p82
sS'updates'
p83
S'Updates'
p84
sS'designi'
p85
S'Design'
p86
sS'noteboock'
p87
S'Notebook'
p88
sS'gril'
p89
S'Grill'
p90
sS'desgne'
p91
S'Design'
p92
sS'displei'
p93
S'Display'
p94
sS'desiner'
p95
S'Design'
p96
sS'i-manual'
p97
S'I-manual'
p98
sS'smarthphone'
p99
S'Smarthphone'
p100
sS'pinch'
p101
S'Pinch'
p102
sS'list'
p103
S'List'
p104
sS'upload'
p105
S'Upload'
p106
sS'refresh'
p107
S'Refresh'
p108
sS'clips'
p109
S'Clips'
p110
sS'displey'
p111
S'Display'
p112
sS'skate'
p113
S'Skate'
p114
sS'frezeer'
p115
S'Frezeer'
p116
sS'subwoofer'
p117
S'Subwoofer'
p118
sS'frezer'
p119
S'Frezer'
p120
sS'flashs'
p121
S'Flashs'
p122
sS'hotspots'
p123
S'Hotspots'
p124
sS'old'
p125
S'Old'
p126
sS'pen-drives'
p127
S'Pen-drives'
p128
sS'motherboard'
p129
S'Motherboard'
p130
sS'posts'
p131
S'Posts'
p132
sS'skin'
p133
S'Skin'
p134
sS'emails'
p135
S'Emails'
p136
sS'chef'
p137
S'Chef'
p138
sS'desigh'
p139
S'Design'
p140
sS'books'
p141
S'Books'
p142
sS'table'
p143
S'Tablet'
p144
sS'download'
p145
S'Download'
p146
sS'home'
p147
S'Home-theater'
p148
sS'redial'
p149
S'Redial'
p150
sS'wallpaper'
p151
S'Wallpaper'
p152
sS'ebooks'
p153
S'E-book'
p154
sS'headset'
p155
S'Headset'
p156
sS'desginer'
p157
S'Design'
p158
sS'wiriless'
p159
S'Wireless'
p160
sS'gamers'
p161
S'Gamers'
p162
sS'expert'
p163
S'Expert'
p164
sS'smatphones'
p165
S'Smartphones'
p166
sS'dispencer'
p167
S'Dispenser'
p168
sS'toutchscreen'
p169
S'Toutchscreen'
p170
sS'desaign'
p171
S'Design'
p172
sS'multiplayer'
p173
S'Multiplayer'
p174
sS'dsiner'
p175
S'Design'
p176
sS'e-mais'
p177
S'E-mais'
p178
sS'standy'
p179
S'Stand-by'
p180
sS'e-mail'
p181
S'E-mail'
p182
sS'multitouch'
p183
S'Multitouch'
p184
sS'wirelless'
p185
S'Wirelless'
p186
sS'eprint'
p187
S'Eprint'
p188
sS'offline'
p189
S'Offline'
p190
sS'designin'
p191
S'Design'
p192
sS'touchsren'
p193
S'Touch screen'
p194
sS'email'
p195
S'Email'
p196
sS'coolers'
p197
S'Coolers'
p198
sS'website'
p199
S'Website'
p200
sS'notbook'
p201
S'Notebook'
p202
sS'receivers'
p203
S'Receivers'
p204
sS'screem'
p205
S'Touchscreen'
p206
sS'screen'
p207
S'Screen'
p208
sS'never'
p209
S'Never'
p210
sS'toilette'
p211
S'Toilette'
p212
sS'update'
p213
S'Update'
p214
sS'wizard'
p215
S'Wizard'
p216
sS'loading'
p217
S'Loading'
p218
sS'bundle'
p219
S'Bundle'
p220
sS'key'
p221
S'Key'
p222
sS'disigne'
p223
S'Design'
p224
sS'post'
p225
S'Post'
p226
sS'loads'
p227
S'Loads'
p228
sS'recall'
p229
S'Recall'
p230
sS'joypad'
p231
S'Joypad'
p232
sS'walkman'
p233
S'Walkman'
p234
sS'standby'
p235
S'Standby'
p236
sS'root'
p237
S'Root'
p238
sS'dispensers'
p239
S'Dispensers'
p240
sS'headphones'
p241
S'Headphones'
p242
sS'surround'
p243
S'Surround'
p244
sS'scaner'
p245
S'Scanner'
p246
sS'caption'
p247
S'Closed caption'
p248
sS'auto-clean'
p249
S'Auto-clean'
p250
sS'netbook'
p251
S'Netbook'
p252
sS'disgn'
p253
S'Design'
p254
sS'receiver'
p255
S'Receiver'
p256
sS'router'
p257
S'Router'
p258
sS'login'
p259
S'Login'
p260
sS'browser'
p261
S'Browser'
p262
sS'processor'
p263
S'Processor'
p264
sS'wireles'
p265
S'Wireless'
p266
sS'dispaly'
p267
S'Display'
p268
sS'smartv'
p269
S'Smart tv'
p270
sS'cutscenes'
p271
S'Cutscenes'
p272
sS'single-player'
p273
S'Single-player'
p274
sS'features'
p275
S'Features'
p276
sS'gamepad'
p277
S'Gamepad'
p278
sS'singleplayer'
p279
S'Singleplayer'
p280
sS'diplay'
p281
S'Diplay'
p282
sS'lay-out'
p283
S'Layout'
p284
sS'dezaine'
p285
S'Design'
p286
sS'off-line'
p287
S'Off-line'
p288
sS'firmaware'
p289
S'Firmware'
p290
sS'down'
p291
S'Down'
p292
sS'capslock'
p293
S'Caps lock'
p294
sS'nightshot'
p295
S'Nightshot'
p296
sS'dessign'
p297
S'Design'
p298
sS'loadings'
p299
S'Loadings'
p300
sS'notebbok'
p301
S'Notebbok'
p302
sS'expensive'
p303
S'Expensive'
p304
sS'playlist'
p305
S'Playlist'
p306
sS'shoping'
p307
S'Shopping'
p308
sS'van'
p309
S'Van'
p310
sS'up-grade'
p311
S'Up-grade'
p312
sS'browse'
p313
S'Browse'
p314
sS'top'
p315
S'Top'
p316
sS'patch'
p317
S'Patch'
p318
sS'lags'
p319
S'Lags'
p320
sS'beep'
p321
S'Beep'
p322
sS'dsaine'
p323
S'Design'
p324
sS'teacher'
p325
S'Home theater'
p326
sS'desine'
p327
S'Design'
p328
sS'desing'
p329
S'Design'
p330
sS'memory'
p331
S'Memory'
p332
sS'on-line'
p333
S'On-line'
p334
sS'chats'
p335
S'Chats'
p336
sS'desgner'
p337
S'Design'
p338
sS'hub'
p339
S'Hub'
p340
sS'nobreak'
p341
S'Nobreak'
p342
sS'frezzer'
p343
S'Frezzer'
p344
sS'benchmark'
p345
S'Benchmark'
p346
sS'webcan'
p347
S'Webcam'
p348
sS'freezers'
p349
S'Freezers'
p350
sS'desin'
p351
S'Design'
p352
sS'dsign'
p353
S'Design'
p354
sS'bugs'
p355
S'Bugs'
p356
sS'desagne'
p357
S'Design'
p358
sS'dsigner'
p359
S'Design'
p360
sS'shoot'
p361
S'Shoot'
p362
sS'pendriver'
p363
S'Pendrive'
p364
sS'pendrives'
p365
S'Pendrives'
p366
sS'desinger'
p367
S'Design'
p368
sS'desingner'
p369
S'Design'
p370
sS'default'
p371
S'Default'
p372
sS'cooler'
p373
S'Cooler'
p374
sS'shampoo'
p375
S'Shampoo'
p376
sS'flip'
p377
S'Flip'
p378
sS'data-show'
p379
S'Data-show'
p380
sS'reviews'
p381
S'Reviews'
p382
sS'datashow'
p383
S'Datashow'
p384
sS'desgin'
p385
S'Design'
p386
sS'glossy'
p387
S'Glossy'
p388
sS'benchmarks'
p389
S'Benchmarks'
p390
sS'outdoors'
p391
S'Outdoors'
p392
sS'dispenser'
p393
S'Dispenser'
p394
sS'chipset'
p395
S'Chipset'
p396
sS'minigames'
p397
S'Minigames'
p398
sS'logon'
p399
S'Logon'
p400
sS'touchscream'
p401
S'Touchscream'
p402
sS'loop'
p403
S'Loop'
p404
sS'e-books'
p405
S'E-books'
p406
sS'teather'
p407
S'Home theater'
p408
sS'upgrade'
p409
S'Upgrade'
p410
sS'layer'
p411
S'Layer'
p412
sS'fashion'
p413
S'Fashion'
p414
sS'playlists'
p415
S'Playlists'
p416
sS'links'
p417
S'Links'
p418
sS'scan'
p419
S'Scan'
p420
sS'slin'
p421
S'Slin'
p422
sS'site'
p423
S'Site'
p424
sS'desain'
p425
S'Design'
p426
sS'autoclean'
p427
S'Autoclean'
p428
sS'gadgets'
p429
S'Gadgets'
p430
sS'e-mails'
p431
S'E-mails'
p432
sS'sofwares'
p433
S'Sofwares'
p434
sS'freeser'
p435
S'Freezer'
p436
sS'experts'
p437
S'Experts'
p438
sS'cans'
p439
S'Webcams'
p440
sS'chat'
p441
S'Chat'
p442
sS'touch-screen'
p443
S'Touchscreen'
p444
sS'multiplayers'
p445
S'Multiplayers'
p446
sS'pink'
p447
S'Pink'
p448
sS'recovery'
p449
S'Recovery'
p450
sS'players'
p451
S'Players'
p452
sS'drivers'
p453
S'Drivers'
p454
sS'ringtone'
p455
S'Ringtone'
p456
sS'\xc3\xadndex'
p457
S'\xc3\xadndex'
p458
sS'delay'
p459
S'Delay'
p460
sS'online'
p461
S'Online'
p462
sS'disign'
p463
S'Design'
p464
sS'nootebook'
p465
S'Notebook'
p466
sS'clicks'
p467
S'Clicks'
p468
sS'wallpapers'
p469
S'Wallpapers'
p470
sS'flasch'
p471
S'Flash'
p472
sS'palms'
p473
S'Palms'
p474
sS'hometheater'
p475
S'Home theater'
p476
sS'fross'
p477
S'Frost free'
p478
sS'downloads'
p479
S'Downloads'
p480
sS'remake'
p481
S'Remake'
p482
sS'tops'
p483
S'Tops'
p484
sS'drives'
p485
S'Drives'
p486
sS'frizer'
p487
S'Freezer'
p488
sS'slideshow'
p489
S'Slideshow'
p490
sS'trailers'
p491
S'Trailers'
p492
sS'notebook'
p493
S'Notebook'
p494
sS'lay'
p495
S'Layout'
p496
sS'ultrabok'
p497
S'Ultrabook'
p498
sS'plugs'
p499
S'Plugs'
p500
sS'off-board'
p501
S'Off-board'
p502
sS'designers'
p503
S'Designers'
p504
sS'pendrave'
p505
S'Pendrave'
p506
sS'bug'
p507
S'Bug'
p508
sS'hobbie'
p509
S'Hobbie'
p510
sS'escreen'
p511
S'Touch screen'
p512
sS'drive'
p513
S'Drive'
p514
sS'sreen'
p515
S'Touch screen'
p516
sS'desinge'
p517
S'Design'
p518
sS'touche'
p519
S'Touch screen'
p520
sS'desingn'
p521
S'Design'
p522
sS'joystick'
p523
S'Joystick'
p524
sS'zum'
p525
S'Zoom'
p526
sS'frizz'
p527
S'Frizz'
p528
sS'scream'
p529
S'Touch screen'
p530
s.